; ModuleID = '34/1445.c'
source_filename = "34/1445.c"
target datalayout = "e-m:e-p270:32:32-p271:32:32-p272:64:64-i64:64-f80:128-n8:16:32:64-S128"
target triple = "x86_64-pc-linux-gnu"

@.str = private unnamed_addr constant [3 x i8] c"%d\00", align 1
@.str.1 = private unnamed_addr constant [5 x i8] c"End\0A\00", align 1
@.str.2 = private unnamed_addr constant [9 x i8] c"%d/2=%d\0A\00", align 1
@.str.3 = private unnamed_addr constant [11 x i8] c"%d*3+1=%d\0A\00", align 1

; Function Attrs: noinline nounwind uwtable
define dso_local i32 @main() #0 {
  %1 = alloca i32, align 4
  %2 = alloca i32, align 4
  %3 = alloca i32, align 4
  %4 = alloca i32, align 4
  %5 = alloca i32, align 4
  store i32 0, i32* %1, align 4
  store i32 0, i32* %3, align 4
  store i32 0, i32* %4, align 4
  %6 = call i32 (i8*, ...) @__isoc99_scanf(i8* getelementptr inbounds ([3 x i8], [3 x i8]* @.str, i64 0, i64 0), i32* %2)
  %7 = load i32, i32* %2, align 4
  store i32 %7, i32* %3, align 4
  %8 = load i32, i32* %3, align 4
  store i32 %8, i32* %4, align 4
  store i32 0, i32* %5, align 4
  br label %9

9:                                                ; preds = %41, %0
  %10 = load i32, i32* %5, align 4
  %11 = icmp slt i32 %10, 100
  br i1 %11, label %12, label %44

12:                                               ; preds = %9
  %13 = load i32, i32* %4, align 4
  %14 = icmp eq i32 %13, 0
  br i1 %14, label %18, label %15

15:                                               ; preds = %12
  %16 = load i32, i32* %4, align 4
  %17 = icmp eq i32 %16, 1
  br i1 %17, label %18, label %20

18:                                               ; preds = %15, %12
  %19 = call i32 (i8*, ...) @printf(i8* getelementptr inbounds ([5 x i8], [5 x i8]* @.str.1, i64 0, i64 0))
  br label %44

20:                                               ; preds = %15
  %21 = load i32, i32* %3, align 4
  %22 = srem i32 %21, 2
  %23 = icmp eq i32 %22, 0
  br i1 %23, label %24, label %31

24:                                               ; preds = %20
  %25 = load i32, i32* %3, align 4
  %26 = sdiv i32 %25, 2
  store i32 %26, i32* %4, align 4
  %27 = load i32, i32* %3, align 4
  %28 = load i32, i32* %4, align 4
  %29 = call i32 (i8*, ...) @printf(i8* getelementptr inbounds ([9 x i8], [9 x i8]* @.str.2, i64 0, i64 0), i32 %27, i32 %28)
  %30 = load i32, i32* %4, align 4
  store i32 %30, i32* %3, align 4
  br label %39

31:                                               ; preds = %20
  %32 = load i32, i32* %3, align 4
  %33 = mul nsw i32 %32, 3
  %34 = add nsw i32 %33, 1
  store i32 %34, i32* %4, align 4
  %35 = load i32, i32* %3, align 4
  %36 = load i32, i32* %4, align 4
  %37 = call i32 (i8*, ...) @printf(i8* getelementptr inbounds ([11 x i8], [11 x i8]* @.str.3, i64 0, i64 0), i32 %35, i32 %36)
  %38 = load i32, i32* %4, align 4
  store i32 %38, i32* %3, align 4
  br label %39

39:                                               ; preds = %31, %24
  br label %40

40:                                               ; preds = %39
  br label %41

41:                                               ; preds = %40
  %42 = load i32, i32* %5, align 4
  %43 = add nsw i32 %42, 1
  store i32 %43, i32* %5, align 4
  br label %9

44:                                               ; preds = %18, %9
  ret i32 0
}

declare dso_local i32 @__isoc99_scanf(i8*, ...) #1

declare dso_local i32 @printf(i8*, ...) #1


!llvm.module.flags = !{!0}
!llvm.ident = !{!1}

!0 = !{i32 1, !"wchar_size", i32 4}
!1 = !{!"clang version 10.0.0-4ubuntu1 "}
